target datalayout = "e-m:e-p270:32:32-p271:32:32-p272:64:64-i64:64-i128:128-f80:128-n8:16:32:64-S128"
target triple = "x86_64-pc-linux-gnu"

%struct.timeout_params = type { i32, i8, i8, ptr, i64, i64, i32 }
%struct.itimerval = type { %struct.timeval, %struct.timeval }
%struct.timeval = type { i64, i64 }

@alarm_enabled = internal global i32 0, align 4
@num_active_timeouts = internal global i32 0, align 4
@.str.1 = private unnamed_addr constant [10 x i8] c"timeout.c\00", align 1
@signal_pending = internal global i32 0, align 4
@active_timeouts = internal global [23 x ptr] zeroinitializer, align 16
@signal_due_at = internal global i64 0, align 8
@.str.3 = private unnamed_addr constant [35 x i8] c"could not enable SIGALRM timer: %m\00", align 1
@__func__.schedule_alarm = private unnamed_addr constant [15 x i8] c"schedule_alarm\00", align 1

; Function Attrs: nounwind uwtable
define internal void @schedule_alarm(i64 noundef %0) #0 {
  %2 = alloca i64, align 8
  %3 = alloca %struct.itimerval, align 8
  %4 = alloca i64, align 8
  %5 = alloca i64, align 8
  %6 = alloca i32, align 4
  %7 = alloca ptr, align 8
  %8 = alloca i32, align 4
  %9 = alloca i64, align 8
  %10 = alloca ptr, align 8
  %11 = alloca ptr, align 8
  %12 = alloca i32, align 4
  store i64 %0, ptr %2, align 8
  %13 = load volatile i32, ptr @num_active_timeouts, align 4
  %14 = icmp sgt i32 %13, 0
  br i1 %14, label %15, label %112

15:                                               ; preds = %1
  call void @llvm.lifetime.start.p0(i64 32, ptr %3) #6
  call void @llvm.lifetime.start.p0(i64 8, ptr %4) #6
  call void @llvm.lifetime.start.p0(i64 8, ptr %5) #6
  call void @llvm.lifetime.start.p0(i64 4, ptr %6) #6
  br label %16

16:                                               ; preds = %15
  call void @llvm.lifetime.start.p0(i64 8, ptr %7) #6
  store ptr %3, ptr %7, align 8
  call void @llvm.lifetime.start.p0(i64 4, ptr %8) #6
  store i32 0, ptr %8, align 4
  call void @llvm.lifetime.start.p0(i64 8, ptr %9) #6
  store i64 32, ptr %9, align 8
  %17 = load ptr, ptr %7, align 8
  %18 = ptrtoint ptr %17 to i64
  %19 = and i64 %18, 7
  %20 = icmp eq i64 %19, 0
  br i1 %20, label %21, label %44

21:                                               ; preds = %16
  %22 = load i64, ptr %9, align 8
  %23 = and i64 %22, 7
  %24 = icmp eq i64 %23, 0
  br i1 %24, label %25, label %44

25:                                               ; preds = %21
  %26 = load i32, ptr %8, align 4
  %27 = icmp eq i32 %26, 0
  br i1 %27, label %28, label %44

28:                                               ; preds = %25
  %29 = load i64, ptr %9, align 8
  %30 = icmp ule i64 %29, 1024
  br i1 %30, label %31, label %44

31:                                               ; preds = %28
  call void @llvm.lifetime.start.p0(i64 8, ptr %10) #6
  %32 = load ptr, ptr %7, align 8
  store ptr %32, ptr %10, align 8
  call void @llvm.lifetime.start.p0(i64 8, ptr %11) #6
  %33 = load ptr, ptr %10, align 8
  %34 = load i64, ptr %9, align 8
  %35 = getelementptr inbounds nuw i8, ptr %33, i64 %34
  store ptr %35, ptr %11, align 8
  br label %36

36:                                               ; preds = %40, %31
  %37 = load ptr, ptr %10, align 8
  %38 = load ptr, ptr %11, align 8
  %39 = icmp ult ptr %37, %38
  br i1 %39, label %40, label %43

40:                                               ; preds = %36
  %41 = load ptr, ptr %10, align 8
  %42 = getelementptr inbounds nuw i64, ptr %41, i32 1
  store ptr %42, ptr %10, align 8
  store i64 0, ptr %41, align 8
  br label %36, !llvm.loop !10

43:                                               ; preds = %36
  call void @llvm.lifetime.end.p0(i64 8, ptr %11) #6
  call void @llvm.lifetime.end.p0(i64 8, ptr %10) #6
  br label %49

44:                                               ; preds = %28, %25, %21, %16
  %45 = load ptr, ptr %7, align 8
  %46 = load i32, ptr %8, align 4
  %47 = trunc i32 %46 to i8
  %48 = load i64, ptr %9, align 8
  call void @llvm.memset.p0.i64(ptr align 1 %45, i8 %47, i64 %48, i1 false)
  br label %49

49:                                               ; preds = %44, %43
  call void @llvm.lifetime.end.p0(i64 8, ptr %9) #6
  call void @llvm.lifetime.end.p0(i64 4, ptr %8) #6
  call void @llvm.lifetime.end.p0(i64 8, ptr %7) #6
  br label %50

50:                                               ; preds = %49
  br label %51

51:                                               ; preds = %50
  %52 = load volatile i32, ptr @signal_pending, align 4
  %53 = icmp ne i32 %52, 0
  br i1 %53, label %54, label %60

54:                                               ; preds = %51
  %55 = load i64, ptr %2, align 8
  %56 = load volatile i64, ptr @signal_due_at, align 8
  %57 = add i64 %56, 10000
  %58 = icmp sgt i64 %55, %57
  br i1 %58, label %59, label %60

59:                                               ; preds = %54
  store volatile i32 0, ptr @signal_pending, align 4
  br label %60

60:                                               ; preds = %59, %54, %51
  %61 = load volatile ptr, ptr @active_timeouts, align 16
  %62 = getelementptr inbounds nuw %struct.timeout_params, ptr %61, i32 0, i32 5
  %63 = load i64, ptr %62, align 8
  store i64 %63, ptr %4, align 8
  %64 = load i64, ptr %2, align 8
  %65 = load i64, ptr %4, align 8
  %66 = icmp sgt i64 %64, %65
  br i1 %66, label %67, label %68

67:                                               ; preds = %60
  store volatile i32 0, ptr @signal_pending, align 4
  store i64 0, ptr %5, align 8
  store i32 1, ptr %6, align 4
  br label %78

68:                                               ; preds = %60
  %69 = load i64, ptr %2, align 8
  %70 = load i64, ptr %4, align 8
  call void @TimestampDifference(i64 noundef %69, i64 noundef %70, ptr noundef %5, ptr noundef %6)
  %71 = load i64, ptr %5, align 8
  %72 = icmp eq i64 %71, 0
  br i1 %72, label %73, label %77

73:                                               ; preds = %68
  %74 = load i32, ptr %6, align 4
  %75 = icmp eq i32 %74, 0
  br i1 %75, label %76, label %77

76:                                               ; preds = %73
  store i32 1, ptr %6, align 4
  br label %77

77:                                               ; preds = %76, %73, %68
  br label %78

78:                                               ; preds = %77, %67
  %79 = load i64, ptr %5, align 8
  %80 = getelementptr inbounds nuw %struct.itimerval, ptr %3, i32 0, i32 1
  %81 = getelementptr inbounds nuw %struct.timeval, ptr %80, i32 0, i32 0
  store i64 %79, ptr %81, align 8
  %82 = load i32, ptr %6, align 4
  %83 = sext i32 %82 to i64
  %84 = getelementptr inbounds nuw %struct.itimerval, ptr %3, i32 0, i32 1
  %85 = getelementptr inbounds nuw %struct.timeval, ptr %84, i32 0, i32 1
  store i64 %83, ptr %85, align 8
  store volatile i32 1, ptr @alarm_enabled, align 4
  %86 = load volatile i32, ptr @signal_pending, align 4
  %87 = icmp ne i32 %86, 0
  br i1 %87, label %88, label %93

88:                                               ; preds = %78
  %89 = load i64, ptr %4, align 8
  %90 = load volatile i64, ptr @signal_due_at, align 8
  %91 = icmp sge i64 %89, %90
  br i1 %91, label %92, label %93

92:                                               ; preds = %88
  store i32 1, ptr %12, align 4
  br label %109

93:                                               ; preds = %88, %78
  %94 = load i64, ptr %4, align 8
  store volatile i64 %94, ptr @signal_due_at, align 8
  store volatile i32 1, ptr @signal_pending, align 4
  %95 = call i32 @setitimer(i32 noundef 0, ptr noundef %3, ptr noundef null) #6
  %96 = icmp ne i32 %95, 0
  br i1 %96, label %97, label %108

97:                                               ; preds = %93
  store volatile i32 0, ptr @signal_pending, align 4
  br label %98

98:                                               ; preds = %97
  br i1 true, label %99, label %101

99:                                               ; preds = %98
  %100 = call zeroext i1 @errstart_cold(i32 noundef 22, ptr noundef null) #7
  br i1 %100, label %103, label %105

101:                                              ; preds = %98
  %102 = call zeroext i1 @errstart(i32 noundef 22, ptr noundef null)
  br i1 %102, label %103, label %105

103:                                              ; preds = %101, %99
  %104 = call i32 (ptr, ...) @errmsg_internal(ptr noundef @.str.3)
  call void @errfinish(ptr noundef @.str.1, i32 noundef 347, ptr noundef @__func__.schedule_alarm)
  br label %105

105:                                              ; preds = %103, %101, %99
  unreachable

106:                                              ; No predecessors!
  br label %107

107:                                              ; preds = %106
  br label %108

108:                                              ; preds = %107, %93
  store i32 0, ptr %12, align 4
  br label %109

109:                                              ; preds = %108, %92
  call void @llvm.lifetime.end.p0(i64 4, ptr %6) #6
  call void @llvm.lifetime.end.p0(i64 8, ptr %5) #6
  call void @llvm.lifetime.end.p0(i64 8, ptr %4) #6
  call void @llvm.lifetime.end.p0(i64 32, ptr %3) #6
  %110 = load i32, ptr %12, align 4
  switch i32 %110, label %113 [
    i32 0, label %111
    i32 1, label %112
  ]

111:                                              ; preds = %109
  br label %112

112:                                              ; preds = %109, %111, %1
  ret void

113:                                              ; preds = %109
  unreachable
}