; Function Attrs: nounwind uwtable
define internal fastcc void @schedule_alarm(i64 noundef %0) unnamed_addr #0 {
  %2 = alloca %struct.itimerval, align 8
  %3 = alloca i64, align 8
  %4 = alloca i32, align 4
  %5 = load volatile i32, ptr @num_active_timeouts, align 4
  %6 = icmp sgt i32 %5, 0
  br i1 %6, label %7, label %40

7:                                                ; preds = %1
  call void @llvm.lifetime.start.p0(i64 32, ptr nonnull %2) #10
  call void @llvm.lifetime.start.p0(i64 8, ptr nonnull %3) #10
  call void @llvm.lifetime.start.p0(i64 4, ptr nonnull %4) #10
  call void @llvm.memset.p0.i64(ptr noundef nonnull align 8 dereferenceable(32) %2, i8 0, i64 16, i1 false)
  %8 = load volatile i32, ptr @signal_pending, align 4
  %.not = icmp eq i32 %8, 0
  br i1 %.not, label %14, label %9

9:                                                ; preds = %7
  %10 = load volatile i64, ptr @signal_due_at, align 8
  %11 = add i64 %10, 10000
  %12 = icmp sgt i64 %0, %11
  br i1 %12, label %13, label %14

13:                                               ; preds = %9
  store volatile i32 0, ptr @signal_pending, align 4
  br label %14

14:                                               ; preds = %13, %9, %7
  %15 = load volatile ptr, ptr @active_timeouts, align 16
  %16 = getelementptr inbounds nuw i8, ptr %15, i64 24
  %17 = load i64, ptr %16, align 8
  %18 = icmp sgt i64 %0, %17
  br i1 %18, label %19, label %20

19:                                               ; preds = %14
  store volatile i32 0, ptr @signal_pending, align 4
  store i64 0, ptr %3, align 8
  br label %.sink.split

20:                                               ; preds = %14
  call void @TimestampDifference(i64 noundef %0, i64 noundef %17, ptr noundef nonnull %3, ptr noundef nonnull %4) #10
  %21 = load i64, ptr %3, align 8
  %22 = icmp eq i64 %21, 0
  %23 = load i32, ptr %4, align 4
  %24 = icmp eq i32 %23, 0
  %or.cond5 = select i1 %22, i1 %24, i1 false
  br i1 %or.cond5, label %.sink.split, label %25

.sink.split:                                      ; preds = %20, %19
  store i32 1, ptr %4, align 4
  br label %25

25:                                               ; preds = %.sink.split, %20
  %26 = phi i32 [ %23, %20 ], [ 1, %.sink.split ]
  %27 = phi i64 [ %21, %20 ], [ 0, %.sink.split ]
  %28 = getelementptr inbounds nuw i8, ptr %2, i64 16
  store i64 %27, ptr %28, align 8
  %29 = sext i32 %26 to i64
  %30 = getelementptr inbounds nuw i8, ptr %2, i64 24
  store i64 %29, ptr %30, align 8
  store volatile i32 1, ptr @alarm_enabled, align 4
  %31 = load volatile i32, ptr @signal_pending, align 4
  %.not26 = icmp eq i32 %31, 0
  br i1 %.not26, label %34, label %32

32:                                               ; preds = %25
  %33 = load volatile i64, ptr @signal_due_at, align 8
  %.not27 = icmp slt i64 %17, %33
  br i1 %.not27, label %34, label %39

34:                                               ; preds = %32, %25
  store volatile i64 %17, ptr @signal_due_at, align 8
  store volatile i32 1, ptr @signal_pending, align 4
  %35 = call i32 @setitimer(i32 noundef 0, ptr noundef nonnull %2, ptr noundef null) #10
  %.not28 = icmp eq i32 %35, 0
  br i1 %.not28, label %39, label %36

36:                                               ; preds = %34
  store volatile i32 0, ptr @signal_pending, align 4
  %37 = call zeroext i1 @errstart_cold(i32 noundef 22, ptr noundef null) #11
  call void @llvm.assume(i1 %37)
  %38 = call i32 (ptr, ...) @errmsg_internal(ptr noundef nonnull @.str.3) #10
  call void @errfinish(ptr noundef nonnull @.str.1, i32 noundef 347, ptr noundef nonnull @__func__.schedule_alarm) #10
  unreachable

39:                                               ; preds = %34, %32
  call void @llvm.lifetime.end.p0(i64 4, ptr nonnull %4) #10
  call void @llvm.lifetime.end.p0(i64 8, ptr nonnull %3) #10
  call void @llvm.lifetime.end.p0(i64 32, ptr nonnull %2) #10
  br label %40

40:                                               ; preds = %39, %1
  ret void
}